; ModuleID = '60/1535.c'
source_filename = "60/1535.c"
target datalayout = "e-m:e-p270:32:32-p271:32:32-p272:64:64-i64:64-f80:128-n8:16:32:64-S128"
target triple = "x86_64-pc-linux-gnu"

@.str = private unnamed_addr constant [3 x i8] c"%d\00", align 1
@.str.1 = private unnamed_addr constant [7 x i8] c"%d %d\0A\00", align 1
@.str.2 = private unnamed_addr constant [6 x i8] c"empty\00", align 1

; Function Attrs: noinline nounwind uwtable
define dso_local i32 @prime(i32 %0) #0 {
  %2 = alloca i32, align 4
  %3 = alloca i32, align 4
  %4 = alloca i32, align 4
  %5 = alloca i32, align 4
  store i32 %0, i32* %3, align 4
  %6 = load i32, i32* %3, align 4
  %7 = sitofp i32 %6 to double
  %8 = call double @sqrt(double %7) #3
  %9 = fadd double %8, 1.000000e+00
  %10 = fptosi double %9 to i32
  store i32 %10, i32* %5, align 4
  store i32 2, i32* %4, align 4
  br label %11

11:                                               ; preds = %22, %1
  %12 = load i32, i32* %4, align 4
  %13 = load i32, i32* %5, align 4
  %14 = icmp slt i32 %12, %13
  br i1 %14, label %15, label %25

15:                                               ; preds = %11
  %16 = load i32, i32* %3, align 4
  %17 = load i32, i32* %4, align 4
  %18 = srem i32 %16, %17
  %19 = icmp eq i32 %18, 0
  br i1 %19, label %20, label %21

20:                                               ; preds = %15
  br label %25

21:                                               ; preds = %15
  br label %22

22:                                               ; preds = %21
  %23 = load i32, i32* %4, align 4
  %24 = add nsw i32 %23, 1
  store i32 %24, i32* %4, align 4
  br label %11

25:                                               ; preds = %20, %11
  %26 = load i32, i32* %4, align 4
  %27 = load i32, i32* %5, align 4
  %28 = icmp eq i32 %26, %27
  br i1 %28, label %29, label %30

29:                                               ; preds = %25
  store i32 1, i32* %2, align 4
  br label %30

30:                                               ; preds = %29, %25
  %31 = load i32, i32* %2, align 4
  ret i32 %31
}

; Function Attrs: nounwind
declare dso_local double @sqrt(double) #1

; Function Attrs: noinline nounwind uwtable
define dso_local i32 @main() #0 {
  %1 = alloca i32, align 4
  %2 = alloca i32, align 4
  %3 = alloca i32, align 4
  %4 = alloca i32, align 4
  %5 = alloca i32, align 4
  %6 = alloca i32, align 4
  %7 = alloca i32, align 4
  %8 = alloca i32, align 4
  store i32 0, i32* %1, align 4
  %9 = call i32 (i8*, ...) @__isoc99_scanf(i8* getelementptr inbounds ([3 x i8], [3 x i8]* @.str, i64 0, i64 0), i32* %7)
  store i32 0, i32* %8, align 4
  store i32 2, i32* %2, align 4
  br label %10

10:                                               ; preds = %35, %0
  %11 = load i32, i32* %2, align 4
  %12 = load i32, i32* %7, align 4
  %13 = sub nsw i32 %12, 2
  %14 = icmp sle i32 %11, %13
  br i1 %14, label %15, label %38

15:                                               ; preds = %10
  %16 = load i32, i32* %2, align 4
  %17 = call i32 @prime(i32 %16)
  store i32 %17, i32* %5, align 4
  %18 = load i32, i32* %5, align 4
  %19 = icmp eq i32 %18, 1
  br i1 %19, label %20, label %34

20:                                               ; preds = %15
  %21 = load i32, i32* %2, align 4
  %22 = add nsw i32 %21, 2
  store i32 %22, i32* %3, align 4
  %23 = load i32, i32* %3, align 4
  %24 = call i32 @prime(i32 %23)
  store i32 %24, i32* %6, align 4
  %25 = load i32, i32* %6, align 4
  %26 = icmp eq i32 %25, 1
  br i1 %26, label %27, label %33

27:                                               ; preds = %20
  %28 = load i32, i32* %2, align 4
  %29 = load i32, i32* %3, align 4
  %30 = call i32 (i8*, ...) @printf(i8* getelementptr inbounds ([7 x i8], [7 x i8]* @.str.1, i64 0, i64 0), i32 %28, i32 %29)
  %31 = load i32, i32* %8, align 4
  %32 = add nsw i32 %31, 1
  store i32 %32, i32* %8, align 4
  br label %33

33:                                               ; preds = %27, %20
  br label %34

34:                                               ; preds = %33, %15
  br label %35

35:                                               ; preds = %34
  %36 = load i32, i32* %2, align 4
  %37 = add nsw i32 %36, 1
  store i32 %37, i32* %2, align 4
  br label %10

38:                                               ; preds = %10
  %39 = load i32, i32* %8, align 4
  %40 = icmp eq i32 %39, 0
  br i1 %40, label %41, label %43

41:                                               ; preds = %38
  %42 = call i32 (i8*, ...) @printf(i8* getelementptr inbounds ([6 x i8], [6 x i8]* @.str.2, i64 0, i64 0))
  br label %43

43:                                               ; preds = %41, %38
  %44 = load i32, i32* %1, align 4
  ret i32 %44
}

declare dso_local i32 @__isoc99_scanf(i8*, ...) #2

declare dso_local i32 @printf(i8*, ...) #2


!llvm.module.flags = !{!0}
!llvm.ident = !{!1}

!0 = !{i32 1, !"wchar_size", i32 4}
!1 = !{!"clang version 10.0.0-4ubuntu1 "}
